; Function Attrs: mustprogress uwtable
define dso_local void @_ZN4Json5Value12removeMemberEPKc(ptr nocapture noundef nonnull readonly align 8 dereferenceable(40) %0, ptr noundef %1) local_unnamed_addr #10 align 2 personality ptr @__gxx_personality_v0 {
  %3 = alloca %"class.std::__cxx11::basic_ostringstream", align 8
  %4 = alloca %"class.std::__cxx11::basic_string", align 8
  %5 = alloca %"class.Json::Value::CZString", align 8
  %6 = getelementptr inbounds i8, ptr %0, i64 8
  %7 = load i16, ptr %6, align 8
  %trunc = trunc i16 %7 to i8
  switch i8 %trunc, label %8 [
    i8 0, label %_ZN4Json5Value8CZStringD2Ev.exit
    i8 7, label %18
  ]

8:                                                ; preds = %2
  call void @_ZNSt7__cxx1119basic_ostringstreamIcSt11char_traitsIcESaIcEEC1Ev(ptr noundef nonnull align 8 dereferenceable(112) %3)
  %9 = invoke noundef nonnull align 8 dereferenceable(8) ptr @_ZStlsISt11char_traitsIcEERSt13basic_ostreamIcT_ES5_PKc(ptr noundef nonnull align 8 dereferenceable(8) %3, ptr noundef nonnull @.str.39)
          to label %10 unwind label %13

10:                                               ; preds = %8
  invoke void @_ZNKSt7__cxx1119basic_ostringstreamIcSt11char_traitsIcESaIcEE3strEv(ptr dead_on_unwind nonnull writable sret(%"class.std::__cxx11::basic_string") align 8 %4, ptr noundef nonnull align 8 dereferenceable(112) %3)
          to label %11 unwind label %13

11:                                               ; preds = %10
  invoke void @_ZN4Json15throwLogicErrorERKNSt7__cxx1112basic_stringIcSt11char_traitsIcESaIcEEE(ptr noundef nonnull align 8 dereferenceable(32) %4) #37
          to label %12 unwind label %15

12:                                               ; preds = %11
  unreachable

13:                                               ; preds = %10, %8
  %14 = landingpad { ptr, i32 }
          cleanup
  br label %17

15:                                               ; preds = %11
  %16 = landingpad { ptr, i32 }
          cleanup
  call void @_ZNSt7__cxx1112basic_stringIcSt11char_traitsIcESaIcEED1Ev(ptr noundef nonnull align 8 dereferenceable(32) %4) #35
  br label %17

17:                                               ; preds = %15, %13
  %.pn = phi { ptr, i32 } [ %16, %15 ], [ %14, %13 ]
  call void @_ZNSt7__cxx1119basic_ostringstreamIcSt11char_traitsIcESaIcEED1Ev(ptr noundef nonnull align 8 dereferenceable(112) %3) #35
  br label %_ZN4Json5Value8CZStringD2Ev.exit11

18:                                               ; preds = %2
  %19 = tail call i64 @strlen(ptr noundef nonnull dereferenceable(1) %1) #36
  %20 = trunc i64 %19 to i32
  store ptr %1, ptr %5, align 8
  %21 = getelementptr inbounds i8, ptr %5, i64 8
  %22 = shl i32 %20, 2
  store i32 %22, ptr %21, align 8
  %23 = load ptr, ptr %0, align 8
  %24 = invoke { ptr, ptr } @_ZNSt8_Rb_treeIN4Json5Value8CZStringESt4pairIKS2_S1_ESt10_Select1stIS5_ESt4lessIS2_ESaIS5_EE11equal_rangeERS4_(ptr noundef nonnull align 8 dereferenceable(48) %23, ptr noundef nonnull align 8 dereferenceable(12) %5)
          to label %.noexc unwind label %34

.noexc:                                           ; preds = %18
  %25 = extractvalue { ptr, ptr } %24, 0
  %26 = extractvalue { ptr, ptr } %24, 1
  invoke void @_ZNSt8_Rb_treeIN4Json5Value8CZStringESt4pairIKS2_S1_ESt10_Select1stIS5_ESt4lessIS2_ESaIS5_EE12_M_erase_auxESt23_Rb_tree_const_iteratorIS5_ESD_(ptr noundef nonnull align 8 dereferenceable(48) %23, ptr %25, ptr %26)
          to label %27 unwind label %34

27:                                               ; preds = %.noexc
  %28 = load ptr, ptr %5, align 8
  %.not.i = icmp eq ptr %28, null
  br i1 %.not.i, label %_ZN4Json5Value8CZStringD2Ev.exit, label %29

29:                                               ; preds = %27
  %30 = load i32, ptr %21, align 8
  %31 = and i32 %30, 3
  %32 = icmp eq i32 %31, 1
  br i1 %32, label %33, label %_ZN4Json5Value8CZStringD2Ev.exit

33:                                               ; preds = %29
  call void @free(ptr noundef nonnull %28) #35
  br label %_ZN4Json5Value8CZStringD2Ev.exit

_ZN4Json5Value8CZStringD2Ev.exit:                 ; preds = %2, %33, %29, %27
  ret void

34:                                               ; preds = %.noexc, %18
  %35 = landingpad { ptr, i32 }
          cleanup
  %36 = load ptr, ptr %5, align 8
  %.not.i10 = icmp eq ptr %36, null
  br i1 %.not.i10, label %_ZN4Json5Value8CZStringD2Ev.exit11, label %37

37:                                               ; preds = %34
  %38 = load i32, ptr %21, align 8
  %39 = and i32 %38, 3
  %40 = icmp eq i32 %39, 1
  br i1 %40, label %41, label %_ZN4Json5Value8CZStringD2Ev.exit11

41:                                               ; preds = %37
  call void @free(ptr noundef nonnull %36) #35
  br label %_ZN4Json5Value8CZStringD2Ev.exit11

_ZN4Json5Value8CZStringD2Ev.exit11:               ; preds = %41, %37, %34, %17
  %.pn7 = phi { ptr, i32 } [ %.pn, %17 ], [ %35, %34 ], [ %35, %37 ], [ %35, %41 ]
  resume { ptr, i32 } %.pn7
}